; Function Attrs: mustprogress uwtable
define void @_ZNK6google8protobuf10TextFormat21FastFieldValuePrinter9PrintBoolEbPNS1_17BaseTextGeneratorE(ptr nocapture nonnull readnone align 8 %this, i1 noundef zeroext %val, ptr noundef %generator) unnamed_addr #4 align 2 {
entry:
  %vtable.i = load ptr, ptr %generator, align 8
  %vfn.i = getelementptr inbounds i8, ptr %vtable.i, i64 40
  %0 = load ptr, ptr %vfn.i, align 8
  br i1 %val, label %if.then, label %if.else

if.then:                                          ; preds = %entry
  tail call void %0(ptr noundef nonnull align 8 dereferenceable(8) %generator, ptr noundef nonnull @.str.3, i64 noundef 4)
  br label %if.end

if.else:                                          ; preds = %entry
  tail call void %0(ptr noundef nonnull align 8 dereferenceable(8) %generator, ptr noundef nonnull @.str.4, i64 noundef 5)
  br label %if.end

if.end:                                           ; preds = %if.else, %if.then
  ret void
}